target datalayout = "e-m:e-p270:32:32-p271:32:32-p272:64:64-i64:64-i128:128-f80:128-n8:16:32:64-S128"
target triple = "x86_64-pc-linux-gnu"

%struct._zend_executor_globals = type { %struct._zval_struct, %struct._zval_struct, [32 x ptr], ptr, ptr, %struct._zend_array, %struct._zend_array, ptr, i32, i32, ptr, ptr, ptr, ptr, ptr, ptr, i64, ptr, ptr, i32, i32, i64, i32, i32, i32, i8, i8, %struct.zend_atomic_bool_s, %struct.zend_atomic_bool_s, ptr, i64, ptr, ptr, %struct._zend_array, %struct._zend_array, i32, i8, %struct._zval_struct, %struct._zval_struct, %struct._zend_stack, %struct._zend_stack, %struct._zend_stack, ptr, i32, i32, i64, ptr, ptr, ptr, %struct._zend_objects_store, ptr, ptr, ptr, [3 x %struct._zend_op], ptr, i8, i8, i64, i32, i32, ptr, [16 x %struct._HashTableIterator], ptr, %union._zend_function, %struct._zend_op, %struct._zend_array, i64, %struct.zend_get_gc_buffer, ptr, ptr, ptr, i64, i8, i32, ptr, ptr, i64, %struct._zend_call_stack, i64, i64, [6 x ptr] }
%struct.zend_atomic_bool_s = type { i8 }
%struct._zval_struct = type { %union._zend_value, %union.anon, %union.anon.2 }
%union._zend_value = type { i64 }
%union.anon = type { i32 }
%union.anon.2 = type { i32 }
%struct._zend_stack = type { i32, i32, i32, ptr }
%struct._zend_objects_store = type { ptr, i32, i32, i32 }
%struct._HashTableIterator = type { ptr, i32, i32 }
%union._zend_function = type { %struct._zend_op_array }
%struct._zend_op_array = type { i8, [3 x i8], i32, ptr, ptr, ptr, i32, i32, ptr, ptr, ptr, ptr, i32, i32, i32, i32, ptr, ptr, ptr, ptr, ptr, i32, i32, ptr, ptr, ptr, i32, i32, i32, i32, ptr, ptr, [6 x ptr] }
%struct._zend_op = type { ptr, %union._znode_op, %union._znode_op, %union._znode_op, i32, i32, i8, i8, i8, i8 }
%union._znode_op = type { i32 }
%struct._zend_array = type { %struct._zend_refcounted_h, %union.anon.5, i32, %union.anon.7, i32, i32, i32, i32, i64, ptr }
%struct._zend_refcounted_h = type { i32, %union.anon.3 }
%union.anon.3 = type { i32 }
%union.anon.5 = type { i32 }
%union.anon.7 = type { ptr }
%struct.zend_get_gc_buffer = type { ptr, ptr, ptr }
%struct._zend_call_stack = type { ptr, i64 }
%struct._php_random_algo = type { i64, ptr, ptr, ptr, ptr }
%struct._zend_execute_data = type { ptr, ptr, ptr, ptr, %struct._zval_struct, ptr, ptr, ptr, ptr }
%struct._zend_object = type { %struct._zend_refcounted_h, i32, ptr, ptr, ptr, [1 x %struct._zval_struct] }
%struct._php_random_algo_with_state = type { ptr, ptr }
%struct._php_random_randomizer = type { %struct._php_random_algo_with_state, i8, %struct._zend_object }
%struct._php_random_result = type { i64, i64 }

@executor_globals = external global %struct._zend_executor_globals, align 8

; Function Attrs: nounwind uwtable
define internal ptr @php_random_randomizer_from_obj(ptr noundef %0) #0 {
  %2 = alloca ptr, align 8
  store ptr %0, ptr %2, align 8
  %3 = load ptr, ptr %2, align 8
  %4 = getelementptr inbounds i8, ptr %3, i64 -24
  ret ptr %4
}

; Function Attrs: nounwind uwtable
define hidden void @zim_Random_Randomizer_nextFloat(ptr noundef %0, ptr noundef %1) #0 {
  %3 = alloca ptr, align 8
  %4 = alloca ptr, align 8
  %5 = alloca ptr, align 8
  %6 = alloca %struct._php_random_algo_with_state, align 8
  %7 = alloca i64, align 8
  %8 = alloca i64, align 8
  %9 = alloca %struct._php_random_result, align 8
  %10 = alloca double, align 8
  %11 = alloca ptr, align 8
  store ptr %0, ptr %3, align 8
  store ptr %1, ptr %4, align 8
  %12 = load ptr, ptr %3, align 8
  %13 = getelementptr inbounds %struct._zend_execute_data, ptr %12, i32 0, i32 4
  %14 = getelementptr inbounds %struct._zval_struct, ptr %13, i32 0, i32 0
  %15 = load ptr, ptr %14, align 8
  %16 = call ptr @php_random_randomizer_from_obj(ptr noundef %15)
  store ptr %16, ptr %5, align 8
  %17 = load ptr, ptr %5, align 8
  %18 = getelementptr inbounds %struct._php_random_randomizer, ptr %17, i32 0, i32 0
  call void @llvm.memcpy.p0.p0.i64(ptr align 8 %6, ptr align 8 %18, i64 16, i1 false)
  br label %19

19:                                               ; preds = %2
  %20 = load ptr, ptr %3, align 8
  %21 = getelementptr inbounds %struct._zend_execute_data, ptr %20, i32 0, i32 4
  %22 = getelementptr inbounds %struct._zval_struct, ptr %21, i32 0, i32 2
  %23 = load i32, ptr %22, align 4
  %24 = icmp ne i32 %23, 0
  %25 = xor i1 %24, true
  %26 = xor i1 %25, true
  %27 = zext i1 %26 to i32
  %28 = sext i32 %27 to i64
  %29 = icmp ne i64 %28, 0
  br i1 %29, label %30, label %31

30:                                               ; preds = %19
  call void @zend_wrong_parameters_none_error()
  br label %81

31:                                               ; preds = %19
  br label %32

32:                                               ; preds = %31
  store i64 0, ptr %7, align 8
  store i64 0, ptr %8, align 8
  br label %33

33:                                               ; preds = %64, %32
  %34 = getelementptr inbounds %struct._php_random_algo_with_state, ptr %6, i32 0, i32 0
  %35 = load ptr, ptr %34, align 8
  %36 = getelementptr inbounds %struct._php_random_algo, ptr %35, i32 0, i32 1
  %37 = load ptr, ptr %36, align 8
  %38 = getelementptr inbounds %struct._php_random_algo_with_state, ptr %6, i32 0, i32 1
  %39 = load ptr, ptr %38, align 8
  %40 = call { i64, i64 } %37(ptr noundef %39)
  %41 = getelementptr inbounds { i64, i64 }, ptr %9, i32 0, i32 0
  %42 = extractvalue { i64, i64 } %40, 0
  store i64 %42, ptr %41, align 8
  %43 = getelementptr inbounds { i64, i64 }, ptr %9, i32 0, i32 1
  %44 = extractvalue { i64, i64 } %40, 1
  store i64 %44, ptr %43, align 8
  %45 = load i64, ptr %7, align 8
  %46 = getelementptr inbounds %struct._php_random_result, ptr %9, i32 0, i32 0
  %47 = load i64, ptr %46, align 8
  %48 = load i64, ptr %8, align 8
  %49 = mul i64 %48, 8
  %50 = shl i64 %47, %49
  %51 = or i64 %45, %50
  store i64 %51, ptr %7, align 8
  %52 = getelementptr inbounds %struct._php_random_result, ptr %9, i32 0, i32 1
  %53 = load i64, ptr %52, align 8
  %54 = load i64, ptr %8, align 8
  %55 = add i64 %54, %53
  store i64 %55, ptr %8, align 8
  %56 = load ptr, ptr getelementptr inbounds (%struct._zend_executor_globals, ptr @executor_globals, i32 0, i32 50), align 8
  %57 = icmp ne ptr %56, null
  br i1 %57, label %58, label %63

58:                                               ; preds = %33
  br label %59

59:                                               ; preds = %58
  %60 = load ptr, ptr getelementptr inbounds (%struct._zend_executor_globals, ptr @executor_globals, i32 0, i32 50), align 8
  %61 = icmp ne ptr %60, null
  call void @llvm.assume(i1 %61)
  br label %81

62:                                               ; No predecessors!
  br label %63

63:                                               ; preds = %62, %33
  br label %64

64:                                               ; preds = %63
  %65 = load i64, ptr %8, align 8
  %66 = icmp ult i64 %65, 8
  br i1 %66, label %33, label %67

67:                                               ; preds = %64
  store double 0x3CA0000000000000, ptr %10, align 8
  %68 = load i64, ptr %7, align 8
  %69 = lshr i64 %68, 11
  store i64 %69, ptr %7, align 8
  br label %70

70:                                               ; preds = %67
  br label %71

71:                                               ; preds = %70
  %72 = load ptr, ptr %4, align 8
  store ptr %72, ptr %11, align 8
  %73 = load i64, ptr %7, align 8
  %74 = uitofp i64 %73 to double
  %75 = fmul double 0x3CA0000000000000, %74
  %76 = load ptr, ptr %11, align 8
  %77 = getelementptr inbounds %struct._zval_struct, ptr %76, i32 0, i32 0
  store double %75, ptr %77, align 8
  %78 = load ptr, ptr %11, align 8
  %79 = getelementptr inbounds %struct._zval_struct, ptr %78, i32 0, i32 1
  store i32 5, ptr %79, align 8
  br label %80

80:                                               ; preds = %71
  br label %81

81:                                               ; preds = %80, %59, %30
  ret void
}