; Function Attrs: nounwind uwtable
define hidden void @zim_Random_Randomizer_nextFloat(ptr nocapture noundef readonly %0, ptr nocapture noundef writeonly %1) local_unnamed_addr #0 {
  %3 = getelementptr inbounds i8, ptr %0, i64 32
  %4 = load ptr, ptr %3, align 8
  %.sroa.28.0..sroa_idx = getelementptr inbounds i8, ptr %4, i64 -16
  %.sroa.28.0.copyload = load ptr, ptr %.sroa.28.0..sroa_idx, align 8
  %5 = getelementptr inbounds i8, ptr %0, i64 44
  %6 = load i32, ptr %5, align 4
  %.not = icmp eq i32 %6, 0
  br i1 %.not, label %.preheader, label %9

.preheader:                                       ; preds = %2
  %7 = getelementptr inbounds i8, ptr %4, i64 -24
  %.sroa.07.0.copyload = load ptr, ptr %7, align 8
  %8 = getelementptr inbounds i8, ptr %.sroa.07.0.copyload, i64 8
  br label %10

9:                                                ; preds = %2
  tail call void @zend_wrong_parameters_none_error() #7
  br label %.loopexit

10:                                               ; preds = %.preheader, %14
  %.013 = phi i64 [ %20, %14 ], [ 0, %.preheader ]
  %.0 = phi i64 [ %18, %14 ], [ 0, %.preheader ]
  %11 = load ptr, ptr %8, align 8
  %12 = tail call { i64, i64 } %11(ptr noundef %.sroa.28.0.copyload) #7
  %13 = load ptr, ptr getelementptr inbounds (%struct._zend_executor_globals, ptr @executor_globals, i64 0, i32 50), align 8
  %.not15 = icmp eq ptr %13, null
  br i1 %.not15, label %14, label %.loopexit

14:                                               ; preds = %10
  %15 = extractvalue { i64, i64 } %12, 0
  %16 = shl nuw nsw i64 %.013, 3
  %17 = shl i64 %15, %16
  %18 = or i64 %17, %.0
  %19 = extractvalue { i64, i64 } %12, 1
  %20 = add i64 %19, %.013
  %21 = icmp ult i64 %20, 8
  br i1 %21, label %10, label %22

22:                                               ; preds = %14
  %23 = lshr i64 %18, 11
  %24 = uitofp i64 %23 to double
  %25 = fmul double %24, 0x3CA0000000000000
  store double %25, ptr %1, align 8
  %26 = getelementptr inbounds i8, ptr %1, i64 8
  store i32 5, ptr %26, align 8
  br label %.loopexit

.loopexit:                                        ; preds = %10, %22, %9
  ret void
}